; Function Attrs: nounwind uwtable
define ptr @l_Lean_Expr_app2_x3f___boxed(ptr noundef %0, ptr noundef %1) local_unnamed_addr #0 {
  %3 = tail call ptr @l_Lean_Expr_app2_x3f(ptr noundef %0, ptr noundef %1)
  %4 = ptrtoint ptr %1 to i64
  %5 = and i64 %4, 1
  %.not = icmp eq i64 %5, 0
  br i1 %.not, label %6, label %lean_dec.exit5

6:                                                ; preds = %2
  %7 = load i32, ptr %1, align 4, !tbaa !8
  %8 = icmp sgt i32 %7, 1
  br i1 %8, label %9, label %11, !prof !11

9:                                                ; preds = %6
  %10 = add nsw i32 %7, -1
  store i32 %10, ptr %1, align 4, !tbaa !8
  br label %lean_dec.exit5

11:                                               ; preds = %6
  %.not.i = icmp eq i32 %7, 0
  br i1 %.not.i, label %lean_dec.exit5, label %12

12:                                               ; preds = %11
  tail call void @lean_dec_ref_cold(ptr noundef nonnull %1) #4
  br label %lean_dec.exit5

lean_dec.exit5:                                   ; preds = %12, %11, %9, %2
  %13 = ptrtoint ptr %0 to i64
  %14 = and i64 %13, 1
  %.not8 = icmp eq i64 %14, 0
  br i1 %.not8, label %15, label %lean_dec.exit

15:                                               ; preds = %lean_dec.exit5
  %16 = load i32, ptr %0, align 4, !tbaa !8
  %17 = icmp sgt i32 %16, 1
  br i1 %17, label %18, label %20, !prof !11

18:                                               ; preds = %15
  %19 = add nsw i32 %16, -1
  store i32 %19, ptr %0, align 4, !tbaa !8
  br label %lean_dec.exit

20:                                               ; preds = %15
  %.not.i6 = icmp eq i32 %16, 0
  br i1 %.not.i6, label %lean_dec.exit, label %21

21:                                               ; preds = %20
  tail call void @lean_dec_ref_cold(ptr noundef nonnull %0) #4
  br label %lean_dec.exit

lean_dec.exit:                                    ; preds = %21, %20, %18, %lean_dec.exit5
  ret ptr %3
}